; Function Attrs: mustprogress nounwind uwtable
define hidden void @_ZNK9EdgeStore37store_gc_root_id_in_leak_context_edgeEP10StoredEdgePK4Edge(ptr nocapture noundef nonnull readonly align 8 dereferenceable(8) %0, ptr nocapture noundef writeonly %1, ptr nocapture noundef %2) local_unnamed_addr #0 align 2 {
  %4 = getelementptr inbounds i8, ptr %2, i64 16
  %5 = load i64, ptr %4, align 8
  %6 = icmp eq i64 %5, 0
  br i1 %6, label %7, label %27

7:                                                ; preds = %3
  %8 = load ptr, ptr %0, align 8
  %9 = getelementptr inbounds i8, ptr %2, i64 8
  %.sroa.0.0.copyload.i.i = load i64, ptr %9, align 8
  %10 = lshr i64 %.sroa.0.0.copyload.i.i, 1
  %11 = and i64 %10, 9223372036854775804
  %12 = getelementptr inbounds i8, ptr %8, i64 8
  %13 = load i64, ptr %12, align 8
  %14 = urem i64 %11, %13
  %15 = load ptr, ptr %8, align 8
  %16 = getelementptr inbounds %class.JfrHashtableBucket, ptr %15, i64 %14
  %17 = load volatile ptr, ptr %16, align 8
  tail call void asm sideeffect "", "~{memory},~{dirflag},~{fpsr},~{flags}"() #13, !srcloc !6
  %.not11.i.i = icmp ne ptr %17, null
  tail call void @llvm.assume(i1 %.not11.i.i)
  %18 = getelementptr inbounds i8, ptr %17, i64 40
  %19 = load i64, ptr %18, align 8
  %20 = icmp eq i64 %19, %11
  br i1 %20, label %_ZNK9EdgeStore6get_idEPK4Edge.exit, label %.lr.ph.i.i

.lr.ph.i.i:                                       ; preds = %7, %.lr.ph.i.i
  %.012.i3.i = phi ptr [ %21, %.lr.ph.i.i ], [ %17, %7 ]
  %21 = load ptr, ptr %.012.i3.i, align 8, !nonnull !9, !noundef !9
  %22 = getelementptr inbounds i8, ptr %21, i64 40
  %23 = load i64, ptr %22, align 8
  %24 = icmp eq i64 %23, %11
  br i1 %24, label %_ZNK9EdgeStore6get_idEPK4Edge.exit, label %.lr.ph.i.i

_ZNK9EdgeStore6get_idEPK4Edge.exit:               ; preds = %.lr.ph.i.i, %7
  %.012.i.lcssa.i = phi ptr [ %17, %7 ], [ %21, %.lr.ph.i.i ]
  %25 = getelementptr inbounds i8, ptr %.012.i.lcssa.i, i64 48
  %26 = load i64, ptr %25, align 8
  store i64 %26, ptr %4, align 8
  br label %27

27:                                               ; preds = %_ZNK9EdgeStore6get_idEPK4Edge.exit, %3
  %.0 = phi i64 [ %26, %_ZNK9EdgeStore6get_idEPK4Edge.exit ], [ %5, %3 ]
  %28 = getelementptr inbounds i8, ptr %1, i64 16
  store i64 %.0, ptr %28, align 8
  ret void
}